target datalayout = "e-m:e-p270:32:32-p271:32:32-p272:64:64-i64:64-i128:128-f80:128-n8:16:32:64-S128"
target triple = "x86_64-pc-linux-gnu"

%class.AstNode = type { ptr, ptr, ptr, ptr, ptr, ptr, ptr, ptr, %class.VNType, %struct.anon, i8, i32, ptr, ptr, ptr, ptr, %class.VNUser, i32, i32, %class.VNUser, %class.VNUser, i32, i32, %class.VNUser }
%class.VNType = type { i16 }
%struct.anon = type { i8 }
%class.VNUser = type { %union.anon.52 }
%union.anon.52 = type { ptr }

; Function Attrs: mustprogress nounwind uwtable
define linkonce_odr dso_local noundef ptr @_ZNK7AstNode4op2pEv(ptr noundef nonnull align 8 dereferenceable(152) %0) #5 comdat align 2 {
  %2 = alloca ptr, align 8
  store ptr %0, ptr %2, align 8
  %3 = load ptr, ptr %2, align 8
  %4 = getelementptr inbounds %class.AstNode, ptr %3, i32 0, i32 4
  %5 = load ptr, ptr %4, align 8
  ret ptr %5
}

; Function Attrs: mustprogress uwtable
define linkonce_odr dso_local void @_ZN9VNVisitor18iterateAndNextNullEP7AstNode(ptr noundef nonnull align 8 dereferenceable(32) %0, ptr noundef %1) #4 comdat align 2 {
  %3 = alloca ptr, align 8
  %4 = alloca ptr, align 8
  store ptr %0, ptr %3, align 8
  store ptr %1, ptr %4, align 8
  %5 = load ptr, ptr %3, align 8
  %6 = load ptr, ptr %4, align 8
  %7 = icmp ne ptr %6, null
  %8 = xor i1 %7, true
  %9 = xor i1 %8, true
  br i1 %9, label %10, label %12

10:                                               ; preds = %2
  %11 = load ptr, ptr %4, align 8
  call void @_ZN7AstNode14iterateAndNextER9VNVisitor(ptr noundef nonnull align 8 dereferenceable(152) %11, ptr noundef nonnull align 8 dereferenceable(32) %5)
  br label %12

12:                                               ; preds = %10, %2
  ret void
}

; Function Attrs: mustprogress nounwind uwtable
define linkonce_odr dso_local noundef ptr @_ZNK13AstNodeModule6stmtspEv(ptr noundef nonnull align 8 dereferenceable(257) %0) #5 comdat align 2 {
  %2 = alloca ptr, align 8
  store ptr %0, ptr %2, align 8
  %3 = load ptr, ptr %2, align 8
  %4 = call noundef ptr @_ZNK7AstNode4op2pEv(ptr noundef nonnull align 8 dereferenceable(152) %3)
  ret ptr %4
}

; Function Attrs: mustprogress uwtable
define internal void @_ZN12_GLOBAL__N_116MergeCondVisitor5visitEP13AstNodeModule(ptr noundef nonnull align 8 dereferenceable(120) %0, ptr noundef %1) unnamed_addr #4 align 2 {
  %3 = alloca ptr, align 8
  %4 = alloca ptr, align 8
  store ptr %0, ptr %3, align 8
  store ptr %1, ptr %4, align 8
  %5 = load ptr, ptr %3, align 8
  %6 = load ptr, ptr %4, align 8
  %7 = call noundef ptr @_ZNK13AstNodeModule6stmtspEv(ptr noundef nonnull align 8 dereferenceable(257) %6)
  call void @_ZN9VNVisitor18iterateAndNextNullEP7AstNode(ptr noundef nonnull align 8 dereferenceable(32) %5, ptr noundef %7)
  ret void
}