; Function Attrs: mustprogress uwtable
define internal void @_ZN12_GLOBAL__N_116MergeCondVisitor5visitEP13AstNodeModule(ptr noundef nonnull align 8 dereferenceable(120) %0, ptr nocapture noundef readonly %1) unnamed_addr #3 align 2 {
  %3 = getelementptr inbounds i8, ptr %1, i64 32
  %4 = load ptr, ptr %3, align 8
  %.not.i = icmp eq ptr %4, null
  br i1 %.not.i, label %_ZN9VNVisitor18iterateAndNextNullEP7AstNode.exit, label %5

5:                                                ; preds = %2
  tail call void @_ZN7AstNode14iterateAndNextER9VNVisitor(ptr noundef nonnull align 8 dereferenceable(152) %4, ptr noundef nonnull align 8 dereferenceable(32) %0)
  br label %_ZN9VNVisitor18iterateAndNextNullEP7AstNode.exit

_ZN9VNVisitor18iterateAndNextNullEP7AstNode.exit: ; preds = %2, %5
  ret void
}